Certificate:
    Data:
        Version: 3 (0x2)
        Serial Number: 9710724193818922041 (0x86c36c34645e4c39)
    Signature Algorithm: sha1WithRSAEncryption
        Issuer: C=KR, ST=Seoul, L=Seoul, O=CA Ltd., OU=CA, CN=ca.com/emailAddress=ca@ca.com
        Validity
            Not Before: Aug  1 08:15:50 2019 GMT
            Not After : Jul 31 08:15:50 2020 GMT
        Subject: C=KR, ST=Seoul, L=Seoul, O=snu, OU=mmlab, CN=sub6.mmlab.snu.ac.kr/emailAddress=sub6@mmlab.snu.ac.kr
        Subject Public Key Info:
            Public Key Algorithm: rsaEncryption
                Public-Key: (2048 bit)
                Modulus:
                    00:d2:d7:99:70:29:52:4c:c3:8a:77:91:e7:fb:e6:
                    79:80:0b:3b:62:4f:79:50:d3:af:54:b8:7c:46:54:
                    68:73:6b:9c:83:ae:ef:49:1b:0a:83:5e:d5:71:bf:
                    b6:fb:aa:c2:6d:31:f2:08:ed:24:b2:a1:8a:1b:0e:
                    04:2f:f6:5a:52:9e:8a:41:36:47:2a:91:47:55:90:
                    3e:92:52:e2:6c:56:c2:30:a2:4a:8d:d9:36:6d:36:
                    72:62:c9:db:8d:cf:d9:26:18:8b:50:e2:5b:b0:04:
                    f6:c0:b7:48:b0:95:2c:bc:92:c1:eb:f1:01:5c:52:
                    9d:bf:c8:0e:88:b4:43:c1:94:70:85:97:c6:80:88:
                    af:87:12:11:ee:ed:61:ea:1a:e2:d3:8a:8d:80:6e:
                    db:70:8a:09:23:56:5d:f8:80:6a:ae:6a:0f:17:06:
                    36:b8:5b:3b:ef:cf:38:4d:0b:6f:d5:65:0b:4d:54:
                    92:d5:75:0a:8a:89:92:7a:56:27:27:ab:d3:51:2d:
                    5b:22:a7:3d:1b:d4:63:52:5a:a2:86:89:75:06:a2:
                    28:12:1c:1e:54:e9:f6:e9:3f:70:de:e1:af:29:b0:
                    c4:d9:d4:be:1b:65:d8:88:22:30:a3:93:e4:f0:94:
                    b4:da:12:96:a4:d6:f8:72:4b:65:75:6c:dd:37:b5:
                    17:27
                Exponent: 65537 (0x10001)
        X509v3 extensions:
            X509v3 Basic Constraints: 
                CA:FALSE
            Netscape Comment: 
                OpenSSL Generated Certificate
            X509v3 Subject Key Identifier: 
                70:2C:33:E4:2B:4B:CB:EA:F6:34:FE:E4:B6:9D:17:3F:CC:D7:07:81
            X509v3 Authority Key Identifier: 
                keyid:66:E9:49:99:D9:13:17:7B:20:FF:FF:72:95:06:27:69:D7:3A:86:8A

    Signature Algorithm: sha1WithRSAEncryption
         aa:f8:d1:0d:2c:14:4d:05:c6:07:5a:3c:9e:d6:88:21:6a:19:
         d0:96:36:99:fc:95:1c:93:37:4a:25:04:42:d1:0c:89:31:97:
         9c:e4:38:cd:c8:2e:6b:5a:b2:22:08:30:f2:67:5a:32:27:a8:
         72:cc:16:8a:66:0b:85:1d:73:8f:0d:11:4b:91:9c:10:71:e0:
         d4:30:b5:10:ba:15:9f:94:0f:d0:7e:a0:ae:d7:10:14:9b:00:
         80:31:98:1c:3b:78:fe:2e:d3:71:8e:2f:e0:26:1a:f9:9b:dd:
         1b:0d:c6:4e:fe:70:c5:66:54:9b:1e:e1:1b:3f:f0:ac:ff:fd:
         ea:19:98:29:41:b0:eb:0a:2d:10:6a:3a:54:8e:7f:6c:9d:36:
         df:44:51:bb:ac:57:53:29:f3:be:db:83:97:44:bc:24:d0:78:
         db:2d:68:94:c6:be:93:92:1a:6f:b6:1f:74:47:ed:31:53:03:
         78:27:d8:4b:9f:d1:f7:58:44:56:55:97:14:e5:a0:10:ac:7a:
         c9:2d:66:8a:cc:d5:7d:8d:ee:46:9b:3a:a7:21:53:08:81:17:
         2a:8c:68:6f:c1:04:d7:2f:fd:ad:5e:0c:df:13:7a:05:11:23:
         ad:20:b0:94:ff:06:3f:6d:11:48:83:e2:66:f6:7f:8f:28:a9:
         d6:a8:fa:1d
-----BEGIN CERTIFICATE-----
MIIEBTCCAu2gAwIBAgIJAIbDbDRkXkw5MA0GCSqGSIb3DQEBBQUAMHcxCzAJBgNV
BAYTAktSMQ4wDAYDVQQIDAVTZW91bDEOMAwGA1UEBwwFU2VvdWwxEDAOBgNVBAoM
B0NBIEx0ZC4xCzAJBgNVBAsMAkNBMQ8wDQYDVQQDDAZjYS5jb20xGDAWBgkqhkiG
9w0BCQEWCWNhQGNhLmNvbTAeFw0xOTA4MDEwODE1NTBaFw0yMDA3MzEwODE1NTBa
MIGPMQswCQYDVQQGEwJLUjEOMAwGA1UECAwFU2VvdWwxDjAMBgNVBAcMBVNlb3Vs
MQwwCgYDVQQKDANzbnUxDjAMBgNVBAsMBW1tbGFiMR0wGwYDVQQDDBRzdWI2Lm1t
bGFiLnNudS5hYy5rcjEjMCEGCSqGSIb3DQEJARYUc3ViNkBtbWxhYi5zbnUuYWMu
a3IwggEiMA0GCSqGSIb3DQEBAQUAA4IBDwAwggEKAoIBAQDS15lwKVJMw4p3kef7
5nmACztiT3lQ069UuHxGVGhza5yDru9JGwqDXtVxv7b7qsJtMfII7SSyoYobDgQv
9lpSnopBNkcqkUdVkD6SUuJsVsIwokqN2TZtNnJiyduNz9kmGItQ4luwBPbAt0iw
lSy8ksHr8QFcUp2/yA6ItEPBlHCFl8aAiK+HEhHu7WHqGuLTio2AbttwigkjVl34
gGquag8XBja4WzvvzzhNC2/VZQtNVJLVdQqKiZJ6Vicnq9NRLVsipz0b1GNSWqKG
iXUGoigSHB5U6fbpP3De4a8psMTZ1L4bZdiIIjCjk+TwlLTaEpak1vhyS2V1bN03
tRcnAgMBAAGjezB5MAkGA1UdEwQCMAAwLAYJYIZIAYb4QgENBB8WHU9wZW5TU0wg
R2VuZXJhdGVkIENlcnRpZmljYXRlMB0GA1UdDgQWBBRwLDPkK0vL6vY0/uS2nRc/
zNcHgTAfBgNVHSMEGDAWgBRm6UmZ2RMXeyD//3KVBidp1zqGijANBgkqhkiG9w0B
AQUFAAOCAQEAqvjRDSwUTQXGB1o8ntaIIWoZ0JY2mfyVHJM3SiUEQtEMiTGXnOQ4
zcgua1qyIggw8mdaMieocswWimYLhR1zjw0RS5GcEHHg1DC1ELoVn5QP0H6grtcQ
FJsAgDGYHDt4/i7TcY4v4CYa+ZvdGw3GTv5wxWZUmx7hGz/wrP/96hmYKUGw6wot
EGo6VI5/bJ0230RRu6xXUynzvtuDl0S8JNB42y1olMa+k5Iab7YfdEftMVMDeCfY
S5/R91hEVlWXFOWgEKx6yS1miszVfY3uRps6pyFTCIEXKoxob8EE1y/9rV4M3xN6
BREjrSCwlP8GP20RSIPiZvZ/jyip1qj6HQ==
-----END CERTIFICATE-----
