Certificate:
    Data:
        Version: 3 (0x2)
        Serial Number: 9710724193818922039 (0x86c36c34645e4c37)
    Signature Algorithm: sha1WithRSAEncryption
        Issuer: C=KR, ST=Seoul, L=Seoul, O=CA Ltd., OU=CA, CN=ca.com/emailAddress=ca@ca.com
        Validity
            Not Before: Aug  1 08:15:39 2019 GMT
            Not After : Jul 31 08:15:39 2020 GMT
        Subject: C=KR, ST=Seoul, L=Seoul, O=sub4, OU=mmlab, CN=sub4.mmlab.snu.ac.kr/emailAddress=sub4@mmlab.snu.ac.kr
        Subject Public Key Info:
            Public Key Algorithm: rsaEncryption
                Public-Key: (2048 bit)
                Modulus:
                    00:c1:27:0d:b5:3d:e9:18:f7:7e:60:6d:7a:ff:38:
                    62:c5:3b:05:b0:dd:71:de:4e:78:32:61:58:3b:4e:
                    97:e8:74:4c:4a:72:08:a0:b7:f9:9c:c9:d1:a4:e7:
                    de:d3:80:80:a0:8d:fc:4c:7f:b2:b7:99:e1:d8:74:
                    37:c3:65:84:80:c0:f1:c9:41:3e:ce:a5:c7:e2:5a:
                    0c:30:1c:78:9f:5d:41:6f:a7:64:54:ff:14:64:70:
                    3b:9e:73:9d:6c:62:3f:f8:5c:8f:b9:7b:ac:d3:aa:
                    b2:ae:0d:b9:29:5e:2f:ea:05:3a:f7:62:80:a1:4e:
                    52:90:1e:68:7b:fc:51:20:ce:32:da:7e:d7:4c:5e:
                    80:48:b3:aa:78:ac:6c:21:74:4d:1d:0a:6a:de:55:
                    83:20:56:79:50:d4:a6:59:2e:d5:bd:e2:27:77:39:
                    f7:a6:8f:f6:41:ed:08:92:94:f9:c5:71:bd:aa:be:
                    af:5d:cf:5d:58:d9:ba:a0:60:14:2f:bf:4f:a4:d1:
                    10:75:bd:37:06:53:21:05:25:f9:d1:6f:a4:d9:1b:
                    0c:a0:20:ed:c0:05:75:37:f6:2f:c0:23:49:9a:a3:
                    aa:66:4b:e7:ee:77:7b:d1:b1:74:17:fc:fd:d6:56:
                    4f:0c:98:8d:bc:85:de:13:b7:46:de:13:62:95:a3:
                    e2:41
                Exponent: 65537 (0x10001)
        X509v3 extensions:
            X509v3 Basic Constraints: 
                CA:FALSE
            Netscape Comment: 
                OpenSSL Generated Certificate
            X509v3 Subject Key Identifier: 
                1B:30:6E:97:81:24:BE:FD:4D:22:99:0B:FE:B6:8D:D6:E5:6F:56:3C
            X509v3 Authority Key Identifier: 
                keyid:66:E9:49:99:D9:13:17:7B:20:FF:FF:72:95:06:27:69:D7:3A:86:8A

    Signature Algorithm: sha1WithRSAEncryption
         08:45:d7:fe:ed:a5:fc:cf:77:9b:8f:1f:c6:c4:b7:82:81:79:
         0c:df:ee:4a:f5:f0:8a:80:00:af:b3:5a:32:77:53:90:df:d1:
         51:80:e8:28:f0:ac:00:e3:c9:22:ec:46:dd:ff:83:3f:dc:9a:
         66:5b:e3:97:26:f6:b4:d3:a0:ce:f2:64:01:7b:db:9e:ca:2b:
         ac:cc:6d:47:3e:f8:51:f7:b1:61:28:6e:80:d5:83:aa:28:54:
         7a:f0:72:9f:65:ec:61:a8:00:4a:a5:69:0f:ec:29:46:49:44:
         fc:66:17:82:d3:ad:c8:99:a2:e3:df:b7:f0:56:4e:f6:85:99:
         4e:7f:52:83:11:ca:fe:66:50:27:e6:64:70:3a:91:c0:5f:d7:
         7c:51:5e:cb:ea:22:10:d5:84:d4:c0:bb:12:43:3e:aa:c1:31:
         02:73:5b:94:49:0d:86:7a:24:c4:65:a1:3e:2f:e8:82:ad:bb:
         74:a4:d6:20:fb:65:e7:35:b7:6a:c4:61:8b:d0:eb:da:e4:b6:
         a7:7f:75:f8:12:e7:e2:bf:7a:49:c6:8d:be:b1:c9:a2:a6:0d:
         d9:28:c0:ab:bb:0d:8b:c1:59:f3:da:ef:9e:1b:1b:10:c4:02:
         5a:d7:43:13:77:99:bc:8e:80:01:1f:ab:26:18:12:89:68:04:
         58:d2:39:e7
-----BEGIN CERTIFICATE-----
MIIEBjCCAu6gAwIBAgIJAIbDbDRkXkw3MA0GCSqGSIb3DQEBBQUAMHcxCzAJBgNV
BAYTAktSMQ4wDAYDVQQIDAVTZW91bDEOMAwGA1UEBwwFU2VvdWwxEDAOBgNVBAoM
B0NBIEx0ZC4xCzAJBgNVBAsMAkNBMQ8wDQYDVQQDDAZjYS5jb20xGDAWBgkqhkiG
9w0BCQEWCWNhQGNhLmNvbTAeFw0xOTA4MDEwODE1MzlaFw0yMDA3MzEwODE1Mzla
MIGQMQswCQYDVQQGEwJLUjEOMAwGA1UECAwFU2VvdWwxDjAMBgNVBAcMBVNlb3Vs
MQ0wCwYDVQQKDARzdWI0MQ4wDAYDVQQLDAVtbWxhYjEdMBsGA1UEAwwUc3ViNC5t
bWxhYi5zbnUuYWMua3IxIzAhBgkqhkiG9w0BCQEWFHN1YjRAbW1sYWIuc251LmFj
LmtyMIIBIjANBgkqhkiG9w0BAQEFAAOCAQ8AMIIBCgKCAQEAwScNtT3pGPd+YG16
/zhixTsFsN1x3k54MmFYO06X6HRMSnIIoLf5nMnRpOfe04CAoI38TH+yt5nh2HQ3
w2WEgMDxyUE+zqXH4loMMBx4n11Bb6dkVP8UZHA7nnOdbGI/+FyPuXus06qyrg25
KV4v6gU692KAoU5SkB5oe/xRIM4y2n7XTF6ASLOqeKxsIXRNHQpq3lWDIFZ5UNSm
WS7VveIndzn3po/2Qe0IkpT5xXG9qr6vXc9dWNm6oGAUL79PpNEQdb03BlMhBSX5
0W+k2RsMoCDtwAV1N/YvwCNJmqOqZkvn7nd70bF0F/z91lZPDJiNvIXeE7dG3hNi
laPiQQIDAQABo3sweTAJBgNVHRMEAjAAMCwGCWCGSAGG+EIBDQQfFh1PcGVuU1NM
IEdlbmVyYXRlZCBDZXJ0aWZpY2F0ZTAdBgNVHQ4EFgQUGzBul4Ekvv1NIpkL/raN
1uVvVjwwHwYDVR0jBBgwFoAUZulJmdkTF3sg//9ylQYnadc6hoowDQYJKoZIhvcN
AQEFBQADggEBAAhF1/7tpfzPd5uPH8bEt4KBeQzf7kr18IqAAK+zWjJ3U5Df0VGA
6CjwrADjySLsRt3/gz/cmmZb45cm9rTToM7yZAF7257KK6zMbUc++FH3sWEoboDV
g6ooVHrwcp9l7GGoAEqlaQ/sKUZJRPxmF4LTrciZouPft/BWTvaFmU5/UoMRyv5m
UCfmZHA6kcBf13xRXsvqIhDVhNTAuxJDPqrBMQJzW5RJDYZ6JMRloT4v6IKtu3Sk
1iD7Zec1t2rEYYvQ69rktqd/dfgS5+K/eknGjb6xyaKmDdkowKu7DYvBWfPa754b
GxDEAlrXQxN3mbyOgAEfqyYYEoloBFjSOec=
-----END CERTIFICATE-----
