Certificate:
    Data:
        Version: 3 (0x2)
        Serial Number: 9710724193818922037 (0x86c36c34645e4c35)
    Signature Algorithm: sha1WithRSAEncryption
        Issuer: C=KR, ST=Seoul, L=Seoul, O=CA Ltd., OU=CA, CN=ca.com/emailAddress=ca@ca.com
        Validity
            Not Before: Aug  1 08:15:25 2019 GMT
            Not After : Jul 31 08:15:25 2020 GMT
        Subject: C=KR, ST=Seoul, L=Seoul, O=sub2, OU=MMLAB, CN=sub2@mmlab.snu.ac.kr/emailAddress=sub@mmlab.snu.ac.kr
        Subject Public Key Info:
            Public Key Algorithm: rsaEncryption
                Public-Key: (2048 bit)
                Modulus:
                    00:ef:36:1f:a6:07:b8:f0:88:0a:17:dd:a2:b2:7b:
                    90:29:4d:f8:cf:11:4b:9c:e8:3d:f3:92:b6:46:8a:
                    ff:40:24:94:25:f6:07:de:4d:c3:b8:fd:c0:fa:4c:
                    d7:38:1c:b8:c9:f7:69:00:f6:ac:fc:d6:d4:31:7b:
                    02:b2:e3:06:0b:92:e0:64:86:21:cf:d4:24:07:ea:
                    d1:4e:f3:85:3f:16:22:09:ad:50:0a:32:4f:5e:5a:
                    45:64:e8:03:d5:2a:49:61:3a:b8:c6:0a:11:cc:8a:
                    b2:cc:fc:bc:10:c2:3b:97:a9:ee:4a:ec:1e:58:ba:
                    60:4e:3d:3c:e6:5c:f8:6e:e1:2e:6f:fe:1c:20:59:
                    2a:38:75:ea:41:22:41:d9:1a:09:a7:28:c9:b2:af:
                    c4:69:2a:d6:9a:63:63:c1:21:fd:b6:3e:94:06:42:
                    e4:cc:43:cc:39:29:69:ca:58:87:00:68:79:26:df:
                    22:9f:83:a4:08:6a:01:6c:de:b5:28:2c:71:97:bd:
                    a4:72:41:81:9e:27:57:ca:39:56:dd:9c:1d:8b:31:
                    d8:4d:30:8c:e1:04:f0:69:fb:81:e7:de:31:5e:0d:
                    e5:35:e2:0f:32:8a:d1:23:92:e7:fd:34:7e:9f:34:
                    3e:56:02:8d:51:43:c8:ea:80:e0:99:fe:f2:84:b6:
                    23:e9
                Exponent: 65537 (0x10001)
        X509v3 extensions:
            X509v3 Basic Constraints: 
                CA:FALSE
            Netscape Comment: 
                OpenSSL Generated Certificate
            X509v3 Subject Key Identifier: 
                23:E9:FD:7D:3E:41:AE:BF:EB:FF:AC:74:EC:CE:D4:AE:BC:F6:F9:00
            X509v3 Authority Key Identifier: 
                keyid:66:E9:49:99:D9:13:17:7B:20:FF:FF:72:95:06:27:69:D7:3A:86:8A

    Signature Algorithm: sha1WithRSAEncryption
         88:fa:a2:dd:df:62:13:e2:f2:30:cb:96:b4:c3:fd:58:b5:74:
         cd:b8:19:47:78:38:bd:97:c3:c5:15:3d:57:b6:c5:01:f2:0a:
         a5:7d:ff:77:11:2a:d8:32:ba:17:0b:5b:7f:a4:79:79:31:fa:
         2b:f6:67:6e:e1:dd:d0:67:0d:6b:ea:a9:1f:96:b4:18:05:9c:
         99:ad:12:b0:c5:1f:33:19:c1:f3:70:6d:4e:ae:db:11:54:dc:
         e2:8a:51:06:ce:0f:ab:80:dc:42:5a:6c:0e:42:0d:c3:51:82:
         a2:43:a0:73:5d:9b:a8:e8:a4:15:74:f8:ba:a5:3e:88:73:24:
         2a:28:c9:7e:35:cd:e9:4f:2b:af:98:c1:53:f6:c0:a3:97:1e:
         db:7e:52:7e:39:c5:ef:9f:88:c6:e7:3c:73:4a:b7:a0:00:2c:
         ce:36:e7:ae:1d:41:86:fa:b6:99:dd:d5:e9:0e:f9:46:ad:62:
         97:f7:d2:12:43:d8:aa:bd:c0:62:15:4e:ad:fe:e0:bf:61:f1:
         d4:f9:48:e7:b5:42:5e:43:74:d9:b1:06:32:ed:8e:2b:52:b3:
         42:bd:f8:67:08:4d:41:d1:18:cd:e4:92:5b:27:75:a5:44:59:
         96:ae:84:fb:35:1e:e6:af:c2:4d:b4:9f:5c:3a:5b:2d:a7:b9:
         bc:c2:66:b6
-----BEGIN CERTIFICATE-----
MIIEBTCCAu2gAwIBAgIJAIbDbDRkXkw1MA0GCSqGSIb3DQEBBQUAMHcxCzAJBgNV
BAYTAktSMQ4wDAYDVQQIDAVTZW91bDEOMAwGA1UEBwwFU2VvdWwxEDAOBgNVBAoM
B0NBIEx0ZC4xCzAJBgNVBAsMAkNBMQ8wDQYDVQQDDAZjYS5jb20xGDAWBgkqhkiG
9w0BCQEWCWNhQGNhLmNvbTAeFw0xOTA4MDEwODE1MjVaFw0yMDA3MzEwODE1MjVa
MIGPMQswCQYDVQQGEwJLUjEOMAwGA1UECAwFU2VvdWwxDjAMBgNVBAcMBVNlb3Vs
MQ0wCwYDVQQKDARzdWIyMQ4wDAYDVQQLDAVNTUxBQjEdMBsGA1UEAwwUc3ViMkBt
bWxhYi5zbnUuYWMua3IxIjAgBgkqhkiG9w0BCQEWE3N1YkBtbWxhYi5zbnUuYWMu
a3IwggEiMA0GCSqGSIb3DQEBAQUAA4IBDwAwggEKAoIBAQDvNh+mB7jwiAoX3aKy
e5ApTfjPEUuc6D3zkrZGiv9AJJQl9gfeTcO4/cD6TNc4HLjJ92kA9qz81tQxewKy
4wYLkuBkhiHP1CQH6tFO84U/FiIJrVAKMk9eWkVk6APVKklhOrjGChHMirLM/LwQ
wjuXqe5K7B5YumBOPTzmXPhu4S5v/hwgWSo4depBIkHZGgmnKMmyr8RpKtaaY2PB
If22PpQGQuTMQ8w5KWnKWIcAaHkm3yKfg6QIagFs3rUoLHGXvaRyQYGeJ1fKOVbd
nB2LMdhNMIzhBPBp+4Hn3jFeDeU14g8yitEjkuf9NH6fND5WAo1RQ8jqgOCZ/vKE
tiPpAgMBAAGjezB5MAkGA1UdEwQCMAAwLAYJYIZIAYb4QgENBB8WHU9wZW5TU0wg
R2VuZXJhdGVkIENlcnRpZmljYXRlMB0GA1UdDgQWBBQj6f19PkGuv+v/rHTsztSu
vPb5ADAfBgNVHSMEGDAWgBRm6UmZ2RMXeyD//3KVBidp1zqGijANBgkqhkiG9w0B
AQUFAAOCAQEAiPqi3d9iE+LyMMuWtMP9WLV0zbgZR3g4vZfDxRU9V7bFAfIKpX3/
dxEq2DK6Fwtbf6R5eTH6K/ZnbuHd0GcNa+qpH5a0GAWcma0SsMUfMxnB83BtTq7b
EVTc4opRBs4Pq4DcQlpsDkINw1GCokOgc12bqOikFXT4uqU+iHMkKijJfjXN6U8r
r5jBU/bAo5ce235SfjnF75+Ixuc8c0q3oAAszjbnrh1Bhvq2md3V6Q75Rq1il/fS
EkPYqr3AYhVOrf7gv2Hx1PlI57VCXkN02bEGMu2OK1KzQr34ZwhNQdEYzeSSWyd1
pURZlq6E+zUe5q/CTbSfXDpbLae5vMJmtg==
-----END CERTIFICATE-----
