Certificate:
    Data:
        Version: 3 (0x2)
        Serial Number: 9710724193818922042 (0x86c36c34645e4c3a)
    Signature Algorithm: sha1WithRSAEncryption
        Issuer: C=KR, ST=Seoul, L=Seoul, O=CA Ltd., OU=CA, CN=ca.com/emailAddress=ca@ca.com
        Validity
            Not Before: Aug  1 08:15:56 2019 GMT
            Not After : Jul 31 08:15:56 2020 GMT
        Subject: C=KR, ST=Seoul, L=Seoul, O=snu, OU=mmlab, CN=sub7.mmlab.snu.ac.kr/emailAddress=sub7@mmlab.snu.ac.kr
        Subject Public Key Info:
            Public Key Algorithm: rsaEncryption
                Public-Key: (2048 bit)
                Modulus:
                    00:c2:94:b5:53:65:c4:bc:90:80:6f:9a:88:c3:63:
                    62:d0:11:7e:bd:ed:d2:9a:cd:5f:60:97:06:dc:65:
                    49:09:6f:66:cb:2c:5f:d4:35:15:64:0c:6c:5c:93:
                    c2:62:1a:a0:74:3b:91:5e:25:71:b6:57:22:4f:ad:
                    b2:72:34:dd:d7:69:cd:a9:2a:66:1e:53:4f:52:b1:
                    58:ae:0e:02:8c:fa:bc:e6:61:17:6b:de:2e:cf:30:
                    70:ea:18:7a:26:4e:39:72:f9:2a:1d:b1:3b:9d:d7:
                    de:75:93:64:45:be:32:9e:06:5e:8a:48:7f:83:ea:
                    50:39:41:f8:4a:1b:25:09:73:b6:4d:1c:d0:25:74:
                    4b:d1:b3:d1:b9:50:0f:81:c9:46:d6:45:6d:c0:c5:
                    3a:12:33:80:a5:8a:a5:aa:65:59:48:22:5b:79:69:
                    a3:95:bf:64:17:3f:c3:f9:49:cd:a4:e6:31:4d:b8:
                    a6:fb:d0:78:8e:6c:49:84:ca:f6:b7:94:ce:ba:e8:
                    9e:f4:c5:61:4f:83:63:0e:22:94:49:2c:1c:e0:f7:
                    d7:b2:e5:4e:24:4f:4a:14:7e:e1:d2:9a:b0:37:f0:
                    bd:1c:71:a8:c4:c6:35:8f:7e:0c:5f:07:f2:f4:47:
                    4e:5e:0a:37:e9:c1:e1:ac:af:b5:f0:98:b1:a9:10:
                    1c:b9
                Exponent: 65537 (0x10001)
        X509v3 extensions:
            X509v3 Basic Constraints: 
                CA:FALSE
            Netscape Comment: 
                OpenSSL Generated Certificate
            X509v3 Subject Key Identifier: 
                44:B4:08:47:59:9F:81:F9:91:3D:BF:06:20:22:DF:17:78:35:B8:92
            X509v3 Authority Key Identifier: 
                keyid:66:E9:49:99:D9:13:17:7B:20:FF:FF:72:95:06:27:69:D7:3A:86:8A

    Signature Algorithm: sha1WithRSAEncryption
         52:81:31:cd:12:99:14:e6:02:24:b8:b5:dd:de:0b:cd:0d:2e:
         3b:d4:ef:1f:68:dc:bf:54:fc:7a:2b:a9:09:22:4c:fa:d2:b1:
         7d:e7:ec:5b:73:46:58:94:9d:f2:68:12:44:bc:45:0f:f3:cb:
         7c:d7:cc:a6:e3:09:76:7f:4f:ca:cf:4b:d1:c4:7c:d7:52:b7:
         d2:f1:2a:0a:d0:1d:45:d7:b7:26:92:77:11:cd:43:7e:84:65:
         13:bd:e3:75:00:7c:e3:26:91:78:a8:c9:f9:7d:d6:d7:bb:15:
         bd:6c:d4:71:40:cf:43:14:22:d3:57:96:fe:ab:62:7f:dd:78:
         ef:b4:84:81:af:7d:1c:1b:37:8b:91:70:6e:a2:7c:f5:1e:cc:
         58:81:93:f5:db:fa:47:19:65:5f:6f:f6:a9:18:2f:99:2e:06:
         8c:af:ca:1e:14:67:19:aa:32:6f:59:18:3a:22:86:d2:b3:5e:
         8e:4c:d0:d3:d9:89:86:21:1d:bc:ec:0c:fb:7a:7e:f9:b8:54:
         fb:c8:f7:c1:52:ee:82:2c:32:92:33:7e:9d:3e:44:a8:dd:c0:
         da:7b:75:a3:7b:6e:1e:c3:e7:cd:e5:5d:ee:43:37:e8:e2:8a:
         2e:90:e8:57:9c:63:b3:e8:5a:91:42:c5:1b:8c:8c:3b:74:de:
         76:ec:e5:2a
-----BEGIN CERTIFICATE-----
MIIEBTCCAu2gAwIBAgIJAIbDbDRkXkw6MA0GCSqGSIb3DQEBBQUAMHcxCzAJBgNV
BAYTAktSMQ4wDAYDVQQIDAVTZW91bDEOMAwGA1UEBwwFU2VvdWwxEDAOBgNVBAoM
B0NBIEx0ZC4xCzAJBgNVBAsMAkNBMQ8wDQYDVQQDDAZjYS5jb20xGDAWBgkqhkiG
9w0BCQEWCWNhQGNhLmNvbTAeFw0xOTA4MDEwODE1NTZaFw0yMDA3MzEwODE1NTZa
MIGPMQswCQYDVQQGEwJLUjEOMAwGA1UECAwFU2VvdWwxDjAMBgNVBAcMBVNlb3Vs
MQwwCgYDVQQKDANzbnUxDjAMBgNVBAsMBW1tbGFiMR0wGwYDVQQDDBRzdWI3Lm1t
bGFiLnNudS5hYy5rcjEjMCEGCSqGSIb3DQEJARYUc3ViN0BtbWxhYi5zbnUuYWMu
a3IwggEiMA0GCSqGSIb3DQEBAQUAA4IBDwAwggEKAoIBAQDClLVTZcS8kIBvmojD
Y2LQEX697dKazV9glwbcZUkJb2bLLF/UNRVkDGxck8JiGqB0O5FeJXG2VyJPrbJy
NN3Xac2pKmYeU09SsViuDgKM+rzmYRdr3i7PMHDqGHomTjly+SodsTud1951k2RF
vjKeBl6KSH+D6lA5QfhKGyUJc7ZNHNAldEvRs9G5UA+ByUbWRW3AxToSM4CliqWq
ZVlIIlt5aaOVv2QXP8P5Sc2k5jFNuKb70HiObEmEyva3lM666J70xWFPg2MOIpRJ
LBzg99ey5U4kT0oUfuHSmrA38L0ccajExjWPfgxfB/L0R05eCjfpweGsr7XwmLGp
EBy5AgMBAAGjezB5MAkGA1UdEwQCMAAwLAYJYIZIAYb4QgENBB8WHU9wZW5TU0wg
R2VuZXJhdGVkIENlcnRpZmljYXRlMB0GA1UdDgQWBBREtAhHWZ+B+ZE9vwYgIt8X
eDW4kjAfBgNVHSMEGDAWgBRm6UmZ2RMXeyD//3KVBidp1zqGijANBgkqhkiG9w0B
AQUFAAOCAQEAUoExzRKZFOYCJLi13d4LzQ0uO9TvH2jcv1T8eiupCSJM+tKxfefs
W3NGWJSd8mgSRLxFD/PLfNfMpuMJdn9Pys9L0cR811K30vEqCtAdRde3JpJ3Ec1D
foRlE73jdQB84yaReKjJ+X3W17sVvWzUcUDPQxQi01eW/qtif91477SEga99HBs3
i5FwbqJ89R7MWIGT9dv6RxllX2/2qRgvmS4GjK/KHhRnGaoyb1kYOiKG0rNejkzQ
09mJhiEdvOwM+3p++bhU+8j3wVLugiwykjN+nT5EqN3A2nt1o3tuHsPnzeVd7kM3
6OKKLpDoV5xjs+hakULFG4yMO3TeduzlKg==
-----END CERTIFICATE-----
