Certificate:
    Data:
        Version: 3 (0x2)
        Serial Number: 9710724193818922040 (0x86c36c34645e4c38)
    Signature Algorithm: sha1WithRSAEncryption
        Issuer: C=KR, ST=Seoul, L=Seoul, O=CA Ltd., OU=CA, CN=ca.com/emailAddress=ca@ca.com
        Validity
            Not Before: Aug  1 08:15:44 2019 GMT
            Not After : Jul 31 08:15:44 2020 GMT
        Subject: C=KR, ST=Seoul, L=Seoul, O=mmlab, OU=mmlab, CN=sub5.mmlab.snu.ac.kr/emailAddress=sub5@mmlab.snu.ac.kr
        Subject Public Key Info:
            Public Key Algorithm: rsaEncryption
                Public-Key: (2048 bit)
                Modulus:
                    00:ab:a0:88:60:74:e6:f3:ac:8d:67:dd:49:9f:81:
                    57:2c:e1:f7:68:07:82:24:df:a7:01:ab:c9:cd:b6:
                    a4:63:87:cb:52:fd:0d:ec:bc:26:07:86:e4:8b:71:
                    0c:5c:17:a0:fb:16:a8:61:52:8f:3c:b4:39:1d:96:
                    46:be:9d:54:7e:d8:74:8f:30:f0:de:66:d6:8d:6d:
                    d7:7d:7f:e4:f3:d4:0e:83:68:bb:7a:36:39:1f:25:
                    c9:20:b2:3d:91:3d:19:6c:be:03:70:0b:24:68:a6:
                    1f:1e:5d:e3:8e:cf:82:fe:68:12:12:73:c5:31:0a:
                    07:03:fa:34:53:32:62:d1:5b:66:51:e0:34:68:26:
                    18:2d:34:5f:50:6d:cd:1b:08:14:85:b2:57:b4:a4:
                    ce:01:91:6c:38:15:94:e9:3c:e9:4e:4a:07:d6:f5:
                    ed:30:ec:63:68:ef:b8:09:e8:23:93:68:1f:44:45:
                    2c:43:58:cd:ca:c3:f9:c5:ff:15:f8:30:c5:c7:88:
                    9c:59:a2:4d:a1:db:fc:73:4b:88:91:bc:93:5e:62:
                    f7:1f:e2:56:f6:3d:ab:78:05:26:61:91:a2:18:6b:
                    da:fa:48:43:69:81:eb:37:55:88:a8:66:4f:2d:89:
                    ef:59:e6:f0:56:80:3d:55:91:db:be:17:7f:43:7f:
                    75:77
                Exponent: 65537 (0x10001)
        X509v3 extensions:
            X509v3 Basic Constraints: 
                CA:FALSE
            Netscape Comment: 
                OpenSSL Generated Certificate
            X509v3 Subject Key Identifier: 
                16:D8:F4:3A:17:59:6E:A6:41:F9:25:03:E2:21:01:A9:BC:39:DA:CC
            X509v3 Authority Key Identifier: 
                keyid:66:E9:49:99:D9:13:17:7B:20:FF:FF:72:95:06:27:69:D7:3A:86:8A

    Signature Algorithm: sha1WithRSAEncryption
         02:1d:ba:f9:be:dc:a6:d3:42:53:c0:dc:6b:42:05:74:7d:ce:
         73:90:e3:68:85:8f:cd:0c:b8:a5:03:6a:c0:eb:9e:52:bb:df:
         ca:7d:76:6c:da:a3:20:d9:9a:e6:ce:a1:bf:40:2f:98:cd:a5:
         8c:4b:18:88:f1:2b:fb:47:41:6a:e8:d1:de:6c:a3:8d:23:9c:
         ba:e2:ca:24:c5:d6:8c:05:54:b8:9a:d4:50:d1:e6:d7:54:e3:
         08:fe:2b:1a:58:84:d5:c0:92:a4:26:b7:a0:a3:2b:78:33:35:
         f8:9b:57:6c:8d:96:75:c5:b8:57:04:fb:44:7f:4a:1b:2d:cb:
         3e:19:4b:a3:1a:46:8b:0b:23:f0:3f:17:5f:cc:b8:ed:47:1c:
         12:a7:6f:28:0d:f5:ad:62:c8:b7:96:15:14:24:b4:16:a1:80:
         b1:34:32:34:7a:56:b5:23:8b:02:32:a1:cd:17:99:da:d3:0b:
         f0:36:22:26:5b:d3:46:e3:76:4c:8b:0d:9f:37:b0:0e:fc:92:
         32:bc:75:30:51:5d:36:8d:72:a5:85:3e:9a:b8:67:f6:4f:ab:
         e9:03:82:5e:79:10:ee:8e:60:39:94:c9:bc:a8:05:2d:32:91:
         49:dd:11:bb:49:82:77:12:48:f4:ce:ca:2b:61:d4:4b:e1:5c:
         7c:69:d8:27
-----BEGIN CERTIFICATE-----
MIIEBzCCAu+gAwIBAgIJAIbDbDRkXkw4MA0GCSqGSIb3DQEBBQUAMHcxCzAJBgNV
BAYTAktSMQ4wDAYDVQQIDAVTZW91bDEOMAwGA1UEBwwFU2VvdWwxEDAOBgNVBAoM
B0NBIEx0ZC4xCzAJBgNVBAsMAkNBMQ8wDQYDVQQDDAZjYS5jb20xGDAWBgkqhkiG
9w0BCQEWCWNhQGNhLmNvbTAeFw0xOTA4MDEwODE1NDRaFw0yMDA3MzEwODE1NDRa
MIGRMQswCQYDVQQGEwJLUjEOMAwGA1UECAwFU2VvdWwxDjAMBgNVBAcMBVNlb3Vs
MQ4wDAYDVQQKDAVtbWxhYjEOMAwGA1UECwwFbW1sYWIxHTAbBgNVBAMMFHN1YjUu
bW1sYWIuc251LmFjLmtyMSMwIQYJKoZIhvcNAQkBFhRzdWI1QG1tbGFiLnNudS5h
Yy5rcjCCASIwDQYJKoZIhvcNAQEBBQADggEPADCCAQoCggEBAKugiGB05vOsjWfd
SZ+BVyzh92gHgiTfpwGryc22pGOHy1L9Dey8JgeG5ItxDFwXoPsWqGFSjzy0OR2W
Rr6dVH7YdI8w8N5m1o1t131/5PPUDoNou3o2OR8lySCyPZE9GWy+A3ALJGimHx5d
447Pgv5oEhJzxTEKBwP6NFMyYtFbZlHgNGgmGC00X1BtzRsIFIWyV7SkzgGRbDgV
lOk86U5KB9b17TDsY2jvuAnoI5NoH0RFLENYzcrD+cX/FfgwxceInFmiTaHb/HNL
iJG8k15i9x/iVvY9q3gFJmGRohhr2vpIQ2mB6zdViKhmTy2J71nm8FaAPVWR274X
f0N/dXcCAwEAAaN7MHkwCQYDVR0TBAIwADAsBglghkgBhvhCAQ0EHxYdT3BlblNT
TCBHZW5lcmF0ZWQgQ2VydGlmaWNhdGUwHQYDVR0OBBYEFBbY9DoXWW6mQfklA+Ih
Aam8OdrMMB8GA1UdIwQYMBaAFGbpSZnZExd7IP//cpUGJ2nXOoaKMA0GCSqGSIb3
DQEBBQUAA4IBAQACHbr5vtym00JTwNxrQgV0fc5zkONohY/NDLilA2rA655Su9/K
fXZs2qMg2ZrmzqG/QC+YzaWMSxiI8Sv7R0Fq6NHebKONI5y64sokxdaMBVS4mtRQ
0ebXVOMI/isaWITVwJKkJregoyt4MzX4m1dsjZZ1xbhXBPtEf0obLcs+GUujGkaL
CyPwPxdfzLjtRxwSp28oDfWtYsi3lhUUJLQWoYCxNDI0ela1I4sCMqHNF5na0wvw
NiImW9NG43ZMiw2fN7AO/JIyvHUwUV02jXKlhT6auGf2T6vpA4JeeRDujmA5lMm8
qAUtMpFJ3RG7SYJ3Ekj0zsorYdRL4Vx8adgn
-----END CERTIFICATE-----
