Certificate:
    Data:
        Version: 3 (0x2)
        Serial Number: 9710724193818922043 (0x86c36c34645e4c3b)
    Signature Algorithm: sha1WithRSAEncryption
        Issuer: C=KR, ST=Seoul, L=Seoul, O=CA Ltd., OU=CA, CN=ca.com/emailAddress=ca@ca.com
        Validity
            Not Before: Aug  1 08:16:01 2019 GMT
            Not After : Jul 31 08:16:01 2020 GMT
        Subject: C=KR, ST=Seoul, L=Seoul, O=mmlab, OU=mmlab, CN=sub8.mmlab.snu.ac.kr/emailAddress=sub8@mmlab.snu.ac.kr
        Subject Public Key Info:
            Public Key Algorithm: rsaEncryption
                Public-Key: (2048 bit)
                Modulus:
                    00:b0:b7:82:56:ad:41:64:74:70:f3:ae:76:31:f6:
                    eb:96:d0:e3:ef:df:94:da:6c:4c:0b:20:ec:60:a9:
                    11:de:24:2d:e9:e0:61:e3:ba:b7:cc:50:17:42:6d:
                    d9:37:c7:1a:b3:95:f9:04:c7:a2:f5:f8:af:20:4c:
                    26:b9:d3:82:ed:78:23:1e:3a:1e:50:b0:05:58:3e:
                    47:48:83:63:74:63:ad:d5:2e:4c:6b:dd:15:39:ee:
                    10:71:78:c1:98:bd:45:0e:6c:dd:26:6a:b2:3d:6a:
                    c9:6d:a6:96:96:63:9c:fb:d9:17:6d:8c:58:45:07:
                    65:c2:39:d3:01:30:e8:7f:e0:eb:e3:79:27:38:d6:
                    eb:53:f9:07:59:8c:76:78:d0:8c:fc:62:d3:41:59:
                    f1:55:31:ee:ae:14:a1:bf:0a:7e:65:45:13:67:f4:
                    0f:b4:48:21:0f:19:f4:a8:8a:b3:01:df:4d:5b:db:
                    a9:9c:89:c8:80:f6:cb:58:27:85:6b:e7:00:dd:2d:
                    46:08:e4:9e:d6:5a:60:6d:36:b3:ea:6b:9b:47:b5:
                    f3:2a:85:ea:aa:c0:fa:99:c6:d0:08:58:35:b1:e9:
                    52:66:b6:88:f8:e0:b2:a1:c3:37:c4:dd:32:6d:c8:
                    d2:ff:94:c9:8c:51:8d:b5:fc:36:20:ec:a5:c5:be:
                    97:f5
                Exponent: 65537 (0x10001)
        X509v3 extensions:
            X509v3 Basic Constraints: 
                CA:FALSE
            Netscape Comment: 
                OpenSSL Generated Certificate
            X509v3 Subject Key Identifier: 
                EC:65:30:DC:6B:FD:F6:70:48:AA:94:D0:C1:C9:EE:76:50:75:AF:E2
            X509v3 Authority Key Identifier: 
                keyid:66:E9:49:99:D9:13:17:7B:20:FF:FF:72:95:06:27:69:D7:3A:86:8A

    Signature Algorithm: sha1WithRSAEncryption
         b1:ce:0f:c4:92:03:68:9a:8a:a5:ed:b2:da:44:92:b6:d0:d8:
         9a:71:43:d8:03:ab:3a:f9:ba:ff:64:9c:6d:96:1d:2d:ff:91:
         9c:a4:12:0c:65:de:86:79:9c:1f:c4:06:f1:f7:13:ce:b0:bc:
         fc:2d:06:db:7c:8d:4f:4f:25:04:30:09:c5:42:c3:0a:c5:7d:
         16:12:23:ec:9a:4a:74:11:00:85:e1:4d:20:66:bd:ca:13:95:
         9c:65:50:b4:83:05:81:c4:de:f7:6a:7f:56:2b:a6:13:cb:e7:
         40:cd:95:43:e2:ba:e7:36:ab:85:1f:ac:cc:b0:68:b5:3a:28:
         7a:7d:57:22:eb:89:84:44:32:e3:26:05:2d:45:b7:f4:a7:74:
         41:3e:f7:bb:b1:93:e8:bb:42:2b:8b:d0:54:ad:dd:2d:03:bf:
         2c:d0:f9:cf:2a:c3:68:46:70:32:0d:90:fb:ea:bf:3c:fe:b0:
         d5:73:19:c1:6b:67:8a:86:cc:8a:f8:39:9d:24:3f:2f:91:92:
         a5:6f:23:13:1b:ae:42:f8:12:b3:c0:3a:e9:79:51:97:0c:15:
         e8:84:88:24:2d:73:9d:ed:06:53:1b:d0:36:74:58:90:76:ff:
         7d:82:92:7c:a2:6d:0b:fc:bf:ab:51:45:c7:a8:92:f0:09:59:
         8d:41:f8:0f
-----BEGIN CERTIFICATE-----
MIIEBzCCAu+gAwIBAgIJAIbDbDRkXkw7MA0GCSqGSIb3DQEBBQUAMHcxCzAJBgNV
BAYTAktSMQ4wDAYDVQQIDAVTZW91bDEOMAwGA1UEBwwFU2VvdWwxEDAOBgNVBAoM
B0NBIEx0ZC4xCzAJBgNVBAsMAkNBMQ8wDQYDVQQDDAZjYS5jb20xGDAWBgkqhkiG
9w0BCQEWCWNhQGNhLmNvbTAeFw0xOTA4MDEwODE2MDFaFw0yMDA3MzEwODE2MDFa
MIGRMQswCQYDVQQGEwJLUjEOMAwGA1UECAwFU2VvdWwxDjAMBgNVBAcMBVNlb3Vs
MQ4wDAYDVQQKDAVtbWxhYjEOMAwGA1UECwwFbW1sYWIxHTAbBgNVBAMMFHN1Yjgu
bW1sYWIuc251LmFjLmtyMSMwIQYJKoZIhvcNAQkBFhRzdWI4QG1tbGFiLnNudS5h
Yy5rcjCCASIwDQYJKoZIhvcNAQEBBQADggEPADCCAQoCggEBALC3glatQWR0cPOu
djH265bQ4+/flNpsTAsg7GCpEd4kLengYeO6t8xQF0Jt2TfHGrOV+QTHovX4ryBM
JrnTgu14Ix46HlCwBVg+R0iDY3RjrdUuTGvdFTnuEHF4wZi9RQ5s3SZqsj1qyW2m
lpZjnPvZF22MWEUHZcI50wEw6H/g6+N5JzjW61P5B1mMdnjQjPxi00FZ8VUx7q4U
ob8KfmVFE2f0D7RIIQ8Z9KiKswHfTVvbqZyJyID2y1gnhWvnAN0tRgjkntZaYG02
s+prm0e18yqF6qrA+pnG0AhYNbHpUma2iPjgsqHDN8TdMm3I0v+UyYxRjbX8NiDs
pcW+l/UCAwEAAaN7MHkwCQYDVR0TBAIwADAsBglghkgBhvhCAQ0EHxYdT3BlblNT
TCBHZW5lcmF0ZWQgQ2VydGlmaWNhdGUwHQYDVR0OBBYEFOxlMNxr/fZwSKqU0MHJ
7nZQda/iMB8GA1UdIwQYMBaAFGbpSZnZExd7IP//cpUGJ2nXOoaKMA0GCSqGSIb3
DQEBBQUAA4IBAQCxzg/EkgNomoql7bLaRJK20NiacUPYA6s6+br/ZJxtlh0t/5Gc
pBIMZd6GeZwfxAbx9xPOsLz8LQbbfI1PTyUEMAnFQsMKxX0WEiPsmkp0EQCF4U0g
Zr3KE5WcZVC0gwWBxN73an9WK6YTy+dAzZVD4rrnNquFH6zMsGi1Oih6fVci64mE
RDLjJgUtRbf0p3RBPve7sZPou0Iri9BUrd0tA78s0PnPKsNoRnAyDZD76r88/rDV
cxnBa2eKhsyK+DmdJD8vkZKlbyMTG65C+BKzwDrpeVGXDBXohIgkLXOd7QZTG9A2
dFiQdv99gpJ8om0L/L+rUUXHqJLwCVmNQfgP
-----END CERTIFICATE-----
