Certificate:
    Data:
        Version: 3 (0x2)
        Serial Number: 9710724193818922038 (0x86c36c34645e4c36)
    Signature Algorithm: sha1WithRSAEncryption
        Issuer: C=KR, ST=Seoul, L=Seoul, O=CA Ltd., OU=CA, CN=ca.com/emailAddress=ca@ca.com
        Validity
            Not Before: Aug  1 08:15:33 2019 GMT
            Not After : Jul 31 08:15:33 2020 GMT
        Subject: C=KR, ST=Seoul, L=Seoul, O=sub3, OU=mmlab, CN=sub3.mmlab.snu.ac.kr/emailAddress=sub3@mmlab.snu.ac.kr
        Subject Public Key Info:
            Public Key Algorithm: rsaEncryption
                Public-Key: (2048 bit)
                Modulus:
                    00:b0:b9:94:12:a9:4b:84:5e:17:16:a6:88:9d:1e:
                    8d:cf:42:86:93:50:32:6f:36:f9:cf:d7:1d:07:23:
                    13:8a:14:3e:32:54:19:d6:71:ee:9a:31:3b:93:7f:
                    c2:31:d2:09:cd:ca:38:08:0b:8b:e3:f4:83:3d:ff:
                    41:04:f5:2e:78:08:8d:e6:59:b8:a4:62:b5:86:c2:
                    78:f6:ed:c7:a3:c3:f7:3f:b3:8d:6a:30:48:78:f4:
                    2a:98:9b:cd:f6:6b:e6:c7:ca:ff:77:a2:87:d0:c8:
                    6d:34:48:82:15:e6:de:3a:9f:eb:bc:b3:50:37:11:
                    84:bb:eb:8d:43:a5:a6:0e:04:28:c8:91:33:62:3a:
                    80:7d:ba:dd:59:89:d7:62:83:05:80:9a:83:f1:6e:
                    02:6d:5d:33:cb:d4:b6:49:84:7a:5b:94:69:21:7e:
                    a4:29:a2:23:6a:85:3e:52:14:47:52:14:0d:96:ab:
                    fc:6b:a2:0d:d4:7d:96:0a:78:f2:a9:51:9f:06:cc:
                    8d:07:d7:4f:cf:cb:0e:46:26:d5:d2:68:68:91:c6:
                    d7:ee:7a:87:0f:6e:8f:aa:d2:ac:84:82:07:15:59:
                    b4:df:08:0c:5d:57:eb:2a:71:4a:14:af:29:bc:9e:
                    14:f5:42:d2:60:6f:59:75:d0:d4:dc:ba:9a:98:f8:
                    3a:0f
                Exponent: 65537 (0x10001)
        X509v3 extensions:
            X509v3 Basic Constraints: 
                CA:FALSE
            Netscape Comment: 
                OpenSSL Generated Certificate
            X509v3 Subject Key Identifier: 
                1E:9A:8F:0E:85:7E:3D:53:00:6C:F8:98:62:B9:64:72:69:E7:08:C8
            X509v3 Authority Key Identifier: 
                keyid:66:E9:49:99:D9:13:17:7B:20:FF:FF:72:95:06:27:69:D7:3A:86:8A

    Signature Algorithm: sha1WithRSAEncryption
         80:48:3e:6a:45:55:4a:dd:03:85:10:8d:cb:37:31:84:b3:66:
         4b:0c:c9:1c:da:29:e6:dd:8c:da:73:6a:ab:a9:fa:0a:45:0a:
         a4:3a:f8:71:3a:df:2f:42:6b:a7:87:a9:e3:4e:b2:7e:46:b8:
         fe:7a:ac:aa:51:d2:8f:92:73:04:f1:3f:21:0a:ad:e4:b5:2c:
         a1:57:8d:4f:1b:fa:1f:41:ab:19:45:29:d1:03:2f:64:0e:b6:
         bf:e4:3a:59:03:25:b4:af:d4:f7:49:0f:31:39:2d:ab:71:51:
         50:81:fd:d9:8e:8d:d0:70:2e:12:b0:60:8a:9a:a3:a2:2a:22:
         15:d8:7a:28:20:bf:c6:e6:c4:e7:e5:4a:f1:42:a1:c4:d9:7b:
         40:2b:d9:95:16:51:00:62:e9:26:f2:48:13:05:62:d4:23:73:
         61:d7:64:9d:85:71:d7:e9:2c:27:8f:b2:79:66:c0:27:ed:63:
         aa:e8:5b:50:80:86:ec:d3:d6:a6:90:41:1a:a0:08:7e:7b:e9:
         46:2e:6f:e4:e1:30:33:0a:4e:4e:c3:61:9c:b0:b8:a9:98:86:
         0b:46:81:06:5c:b8:66:93:1a:a5:66:ec:3d:4a:00:d1:74:ce:
         d3:51:65:43:c1:cb:73:97:71:c7:ef:cd:08:b0:1b:04:c0:b7:
         65:90:85:57
-----BEGIN CERTIFICATE-----
MIIEBjCCAu6gAwIBAgIJAIbDbDRkXkw2MA0GCSqGSIb3DQEBBQUAMHcxCzAJBgNV
BAYTAktSMQ4wDAYDVQQIDAVTZW91bDEOMAwGA1UEBwwFU2VvdWwxEDAOBgNVBAoM
B0NBIEx0ZC4xCzAJBgNVBAsMAkNBMQ8wDQYDVQQDDAZjYS5jb20xGDAWBgkqhkiG
9w0BCQEWCWNhQGNhLmNvbTAeFw0xOTA4MDEwODE1MzNaFw0yMDA3MzEwODE1MzNa
MIGQMQswCQYDVQQGEwJLUjEOMAwGA1UECAwFU2VvdWwxDjAMBgNVBAcMBVNlb3Vs
MQ0wCwYDVQQKDARzdWIzMQ4wDAYDVQQLDAVtbWxhYjEdMBsGA1UEAwwUc3ViMy5t
bWxhYi5zbnUuYWMua3IxIzAhBgkqhkiG9w0BCQEWFHN1YjNAbW1sYWIuc251LmFj
LmtyMIIBIjANBgkqhkiG9w0BAQEFAAOCAQ8AMIIBCgKCAQEAsLmUEqlLhF4XFqaI
nR6Nz0KGk1Aybzb5z9cdByMTihQ+MlQZ1nHumjE7k3/CMdIJzco4CAuL4/SDPf9B
BPUueAiN5lm4pGK1hsJ49u3Ho8P3P7ONajBIePQqmJvN9mvmx8r/d6KH0MhtNEiC
FebeOp/rvLNQNxGEu+uNQ6WmDgQoyJEzYjqAfbrdWYnXYoMFgJqD8W4CbV0zy9S2
SYR6W5RpIX6kKaIjaoU+UhRHUhQNlqv8a6IN1H2WCnjyqVGfBsyNB9dPz8sORibV
0mhokcbX7nqHD26PqtKshIIHFVm03wgMXVfrKnFKFK8pvJ4U9ULSYG9ZddDU3Lqa
mPg6DwIDAQABo3sweTAJBgNVHRMEAjAAMCwGCWCGSAGG+EIBDQQfFh1PcGVuU1NM
IEdlbmVyYXRlZCBDZXJ0aWZpY2F0ZTAdBgNVHQ4EFgQUHpqPDoV+PVMAbPiYYrlk
cmnnCMgwHwYDVR0jBBgwFoAUZulJmdkTF3sg//9ylQYnadc6hoowDQYJKoZIhvcN
AQEFBQADggEBAIBIPmpFVUrdA4UQjcs3MYSzZksMyRzaKebdjNpzaqup+gpFCqQ6
+HE63y9Ca6eHqeNOsn5GuP56rKpR0o+ScwTxPyEKreS1LKFXjU8b+h9BqxlFKdED
L2QOtr/kOlkDJbSv1PdJDzE5LatxUVCB/dmOjdBwLhKwYIqao6IqIhXYeiggv8bm
xOflSvFCocTZe0Ar2ZUWUQBi6SbySBMFYtQjc2HXZJ2FcdfpLCePsnlmwCftY6ro
W1CAhuzT1qaQQRqgCH576UYub+ThMDMKTk7DYZywuKmYhgtGgQZcuGaTGqVm7D1K
ANF0ztNRZUPBy3OXccfvzQiwGwTAt2WQhVc=
-----END CERTIFICATE-----
